; Function Attrs: mustprogress uwtable
define noundef i64 @_ZN9grpc_core8internal18StatusAllocHeapPtrEN4absl12lts_202407226StatusE(ptr noundef readonly captures(none) %0) local_unnamed_addr #3 personality ptr @__gxx_personality_v0 {
  %2 = load i64, ptr %0, align 8, !tbaa !8
  %3 = icmp eq i64 %2, 1
  br i1 %3, label %11, label %4

4:                                                ; preds = %1
  %5 = tail call noalias noundef nonnull dereferenceable(8) ptr @_Znwm(i64 noundef 8) #33
  store i64 %2, ptr %5, align 8, !tbaa !8
  %6 = and i64 %2, 1
  %.not.i.i = icmp eq i64 %6, 0
  br i1 %.not.i.i, label %7, label %_ZN4absl12lts_202407226StatusC2ERKS1_.exit

7:                                                ; preds = %4
  %8 = inttoptr i64 %2 to ptr
  %9 = atomicrmw add ptr %8, i32 1 monotonic, align 4
  br label %_ZN4absl12lts_202407226StatusC2ERKS1_.exit

_ZN4absl12lts_202407226StatusC2ERKS1_.exit:       ; preds = %7, %4
  %10 = ptrtoint ptr %5 to i64
  br label %11

11:                                               ; preds = %1, %_ZN4absl12lts_202407226StatusC2ERKS1_.exit
  %.0 = phi i64 [ %10, %_ZN4absl12lts_202407226StatusC2ERKS1_.exit ], [ 0, %1 ]
  ret i64 %.0
}